; Function Attrs: mustprogress uwtable
define ptr @uloc_toUnicodeLocaleType_77(ptr noundef %0, ptr noundef %1) local_unnamed_addr #1 personality ptr @__gxx_personality_v0 {
  %3 = alloca %"class.std::optional.30", align 8
  %4 = icmp eq ptr %0, null
  br i1 %4, label %21, label %5

5:                                                ; preds = %2
  %6 = load i8, ptr %0, align 1, !tbaa !20
  %7 = icmp eq i8 %6, 0
  %8 = icmp eq ptr %1, null
  %or.cond = or i1 %8, %7
  br i1 %or.cond, label %21, label %9

9:                                                ; preds = %5
  %10 = load i8, ptr %1, align 1, !tbaa !20
  %11 = icmp eq i8 %10, 0
  br i1 %11, label %21, label %12

12:                                               ; preds = %9
  %13 = tail call noundef i64 @strlen(ptr noundef nonnull dereferenceable(1) %0) #20
  %14 = tail call noundef i64 @strlen(ptr noundef nonnull dereferenceable(1) %1) #20
  call void @llvm.lifetime.start.p0(i64 24, ptr nonnull %3) #20, !noalias !145
  call void @_Z20ulocimp_toBcpType_77St17basic_string_viewIcSt11char_traitsIcEES2_(ptr dead_on_unwind nonnull writable sret(%"class.std::optional.30") align 8 %3, i64 %13, ptr nonnull %0, i64 %14, ptr nonnull %1), !noalias !145
  %15 = getelementptr inbounds nuw i8, ptr %3, i64 16
  %16 = load i8, ptr %15, align 8, !tbaa !141, !range !74, !noalias !145, !noundef !75
  %17 = trunc nuw i8 %16 to i1
  br i1 %17, label %_Z32ulocimp_toBcpTypeWithFallback_77St17basic_string_viewIcSt11char_traitsIcEES2_.exit.thread17, label %18

_Z32ulocimp_toBcpTypeWithFallback_77St17basic_string_viewIcSt11char_traitsIcEES2_.exit.thread17: ; preds = %12
  %.sroa.4.0..sroa_idx19 = getelementptr inbounds nuw i8, ptr %3, i64 8
  %.sroa.4.0.copyload20 = load ptr, ptr %.sroa.4.0..sroa_idx19, align 8
  br label %.sink.split

18:                                               ; preds = %12
  %19 = trunc i64 %14 to i32
  %20 = call noundef zeroext i1 @_Z28ultag_isUnicodeLocaleType_77PKci(ptr noundef nonnull %1, i32 noundef %19), !noalias !145
  br i1 %20, label %.sink.split, label %_Z32ulocimp_toBcpTypeWithFallback_77St17basic_string_viewIcSt11char_traitsIcEES2_.exit

_Z32ulocimp_toBcpTypeWithFallback_77St17basic_string_viewIcSt11char_traitsIcEES2_.exit: ; preds = %18
  %.sroa.6.0.copyload.pre = load i8, ptr %15, align 8
  %.sroa.6.0.copyload.pre.fr = freeze i8 %.sroa.6.0.copyload.pre
  %.pre = trunc i8 %.sroa.6.0.copyload.pre.fr to i1
  %.sroa.4.0..sroa_idx = getelementptr inbounds nuw i8, ptr %3, i64 8
  %.sroa.4.0.copyload = load ptr, ptr %.sroa.4.0..sroa_idx, align 8
  call void @llvm.lifetime.end.p0(i64 24, ptr nonnull %3) #20, !noalias !145
  %spec.select = select i1 %.pre, ptr %.sroa.4.0.copyload, ptr null
  br label %21

.sink.split:                                      ; preds = %18, %_Z32ulocimp_toBcpTypeWithFallback_77St17basic_string_viewIcSt11char_traitsIcEES2_.exit.thread17
  %.0.ph = phi ptr [ %.sroa.4.0.copyload20, %_Z32ulocimp_toBcpTypeWithFallback_77St17basic_string_viewIcSt11char_traitsIcEES2_.exit.thread17 ], [ %1, %18 ]
  call void @llvm.lifetime.end.p0(i64 24, ptr nonnull %3) #20, !noalias !145
  br label %21

21:                                               ; preds = %_Z32ulocimp_toBcpTypeWithFallback_77St17basic_string_viewIcSt11char_traitsIcEES2_.exit, %.sink.split, %2, %5, %9
  %.0 = phi ptr [ null, %9 ], [ null, %5 ], [ null, %2 ], [ %spec.select, %_Z32ulocimp_toBcpTypeWithFallback_77St17basic_string_viewIcSt11char_traitsIcEES2_.exit ], [ %.0.ph, %.sink.split ]
  ret ptr %.0
}